target datalayout = "e-m:e-p270:32:32-p271:32:32-p272:64:64-i64:64-i128:128-f80:128-n8:16:32:64-S128"
target triple = "x86_64-unknown-linux-gnu"

%"class.icu_75::UnicodeString" = type { %"class.icu_75::Replaceable", %"union.icu_75::UnicodeString::StackBufferOrFields" }
%"class.icu_75::Replaceable" = type { %"class.icu_75::UObject" }
%"class.icu_75::UObject" = type { ptr }
%"union.icu_75::UnicodeString::StackBufferOrFields" = type { %struct.anon.0, [32 x i8] }
%struct.anon.0 = type { i16, i32, i32, ptr }
%"struct.icu_75::CollationData" = type <{ ptr, ptr, ptr, ptr, ptr, ptr, ptr, i32, i32, i32, i32, ptr, ptr, ptr, i32, i32, ptr, ptr, i32, [4 x i8], ptr, i32, [4 x i8] }>
%"class.icu_75::UCharsTrie::Iterator" = type { ptr, ptr, ptr, i32, i32, i8, %"class.icu_75::UnicodeString", i32, i32, ptr }
%"class.icu_75::ConstChar16Ptr" = type { ptr }
%"class.icu_75::ContractionsAndExpansions" = type <{ ptr, ptr, ptr, ptr, i8, i8, [6 x i8], %"class.icu_75::UnicodeSet", %"class.icu_75::UnicodeSet", %"class.icu_75::UnicodeString", ptr, [31 x i64], i32, [4 x i8] }>
%"class.icu_75::UnicodeSet" = type <{ %"class.icu_75::UnicodeFilter", ptr, i32, i32, i8, [7 x i8], ptr, ptr, i32, [4 x i8], ptr, i32, [4 x i8], ptr, ptr, [25 x i32], [4 x i8] }>
%"class.icu_75::UnicodeFilter" = type { %"class.icu_75::UnicodeFunctor", %"class.icu_75::UnicodeMatcher" }
%"class.icu_75::UnicodeFunctor" = type { %"class.icu_75::UObject" }
%"class.icu_75::UnicodeMatcher" = type { ptr }

; Function Attrs: mustprogress nounwind uwtable
define linkonce_odr noundef i32 @_ZNK6icu_7510UCharsTrie8Iterator8getValueEv(ptr noundef nonnull align 8 dereferenceable(120) %this) #1 comdat align 2 {
entry:
  %this.addr = alloca ptr, align 8
  store ptr %this, ptr %this.addr, align 8
  %this1 = load ptr, ptr %this.addr, align 8
  %value_ = getelementptr inbounds %"class.icu_75::UCharsTrie::Iterator", ptr %this1, i32 0, i32 8
  %0 = load i32, ptr %value_, align 4
  ret i32 %0
}

; Function Attrs: mustprogress nounwind uwtable
define linkonce_odr noundef signext i8 @_ZNK6icu_7513UnicodeString7isEmptyEv(ptr noundef nonnull align 8 dereferenceable(64) %this) #1 comdat align 2 {
entry:
  %this.addr = alloca ptr, align 8
  store ptr %this, ptr %this.addr, align 8
  %this1 = load ptr, ptr %this.addr, align 8
  %fUnion = getelementptr inbounds %"class.icu_75::UnicodeString", ptr %this1, i32 0, i32 1
  %fLengthAndFlags = getelementptr inbounds %struct.anon.0, ptr %fUnion, i32 0, i32 0
  %0 = load i16, ptr %fLengthAndFlags, align 8
  %conv = sext i16 %0 to i32
  %shr = ashr i32 %conv, 5
  %cmp = icmp eq i32 %shr, 0
  %conv2 = zext i1 %cmp to i8
  ret i8 %conv2
}

; Function Attrs: mustprogress nounwind uwtable
define linkonce_odr noundef nonnull align 8 dereferenceable(64) ptr @_ZNK6icu_7510UCharsTrie8Iterator9getStringEv(ptr noundef nonnull align 8 dereferenceable(120) %this) #1 comdat align 2 {
entry:
  %this.addr = alloca ptr, align 8
  store ptr %this, ptr %this.addr, align 8
  %this1 = load ptr, ptr %this.addr, align 8
  %str_ = getelementptr inbounds %"class.icu_75::UCharsTrie::Iterator", ptr %this1, i32 0, i32 6
  ret ptr %str_
}

; Function Attrs: mustprogress nounwind uwtable
define linkonce_odr void @_ZN6icu_7514ConstChar16PtrD2Ev(ptr noundef nonnull align 8 dereferenceable(8) %this) unnamed_addr #1 comdat align 2 {
entry:
  %this.addr = alloca ptr, align 8
  store ptr %this, ptr %this.addr, align 8
  %this1 = load ptr, ptr %this.addr, align 8
  %p_ = getelementptr inbounds %"class.icu_75::ConstChar16Ptr", ptr %this1, i32 0, i32 0
  %0 = load ptr, ptr %p_, align 8
  call void asm sideeffect "", "rm,~{memory},~{dirflag},~{fpsr},~{flags}"(ptr %0) #6, !srcloc !12
  ret void
}

; Function Attrs: mustprogress nounwind uwtable
define linkonce_odr void @_ZN6icu_7514ConstChar16PtrC2EPKDs(ptr noundef nonnull align 8 dereferenceable(8) %this, ptr noundef %p) unnamed_addr #1 comdat align 2 {
entry:
  %this.addr = alloca ptr, align 8
  %p.addr = alloca ptr, align 8
  store ptr %this, ptr %this.addr, align 8
  store ptr %p, ptr %p.addr, align 8
  %this1 = load ptr, ptr %this.addr, align 8
  %p_ = getelementptr inbounds %"class.icu_75::ConstChar16Ptr", ptr %this1, i32 0, i32 0
  %0 = load ptr, ptr %p.addr, align 8
  store ptr %0, ptr %p_, align 8
  ret void
}

; Function Attrs: mustprogress nounwind uwtable
define linkonce_odr noundef i32 @_ZN6icu_7513CollationData8readCE32EPKDs(ptr noundef %p) #1 comdat align 2 {
entry:
  %p.addr = alloca ptr, align 8
  store ptr %p, ptr %p.addr, align 8
  %0 = load ptr, ptr %p.addr, align 8
  %arrayidx = getelementptr inbounds i16, ptr %0, i64 0
  %1 = load i16, ptr %arrayidx, align 2
  %conv = zext i16 %1 to i32
  %shl = shl i32 %conv, 16
  %2 = load ptr, ptr %p.addr, align 8
  %arrayidx1 = getelementptr inbounds i16, ptr %2, i64 1
  %3 = load i16, ptr %arrayidx1, align 2
  %conv2 = zext i16 %3 to i32
  %or = or i32 %shl, %conv2
  ret i32 %or
}

; Function Attrs: mustprogress nounwind uwtable
define linkonce_odr noundef i32 @_ZN6icu_759Collation13indexFromCE32Ej(i32 noundef %ce32) #1 comdat align 2 {
entry:
  %ce32.addr = alloca i32, align 4
  store i32 %ce32, ptr %ce32.addr, align 4
  %0 = load i32, ptr %ce32.addr, align 4
  %shr = lshr i32 %0, 13
  ret i32 %shr
}

; Function Attrs: mustprogress uwtable
define void @_ZN6icu_7525ContractionsAndExpansions18handleContractionsEiij(ptr noundef nonnull align 8 dereferenceable(764) %this, i32 noundef %start, i32 noundef %end, i32 noundef %ce32) #0 align 2 personality ptr @__gxx_personality_v0 {
entry:
  %this.addr = alloca ptr, align 8
  %start.addr = alloca i32, align 4
  %end.addr = alloca i32, align 4
  %ce32.addr = alloca i32, align 4
  %p = alloca ptr, align 8
  %suffixes = alloca %"class.icu_75::UCharsTrie::Iterator", align 8
  %agg.tmp = alloca %"class.icu_75::ConstChar16Ptr", align 8
  %exn.slot = alloca ptr, align 8
  %ehselector.slot = alloca i32, align 4
  store ptr %this, ptr %this.addr, align 8
  store i32 %start, ptr %start.addr, align 4
  store i32 %end, ptr %end.addr, align 4
  store i32 %ce32, ptr %ce32.addr, align 4
  %this1 = load ptr, ptr %this.addr, align 8
  %data = getelementptr inbounds %"class.icu_75::ContractionsAndExpansions", ptr %this1, i32 0, i32 0
  %0 = load ptr, ptr %data, align 8
  %contexts = getelementptr inbounds %"struct.icu_75::CollationData", ptr %0, i32 0, i32 3
  %1 = load ptr, ptr %contexts, align 8
  %2 = load i32, ptr %ce32.addr, align 4
  %call = call noundef i32 @_ZN6icu_759Collation13indexFromCE32Ej(i32 noundef %2)
  %idx.ext = sext i32 %call to i64
  %add.ptr = getelementptr inbounds i16, ptr %1, i64 %idx.ext
  store ptr %add.ptr, ptr %p, align 8
  %3 = load i32, ptr %ce32.addr, align 4
  %and = and i32 %3, 256
  %cmp = icmp ne i32 %and, 0
  br i1 %cmp, label %if.then, label %if.else

if.then:                                          ; preds = %entry
  br label %if.end

if.else:                                          ; preds = %entry
  %4 = load ptr, ptr %p, align 8
  %call2 = call noundef i32 @_ZN6icu_7513CollationData8readCE32EPKDs(ptr noundef %4)
  store i32 %call2, ptr %ce32.addr, align 4
  %5 = load i32, ptr %start.addr, align 4
  %6 = load i32, ptr %end.addr, align 4
  %7 = load i32, ptr %ce32.addr, align 4
  call void @_ZN6icu_7525ContractionsAndExpansions10handleCE32Eiij(ptr noundef nonnull align 8 dereferenceable(764) %this1, i32 noundef %5, i32 noundef %6, i32 noundef %7)
  br label %if.end

if.end:                                           ; preds = %if.else, %if.then
  %8 = load ptr, ptr %p, align 8
  %add.ptr3 = getelementptr inbounds i16, ptr %8, i64 2
  call void @_ZN6icu_7514ConstChar16PtrC2EPKDs(ptr noundef nonnull align 8 dereferenceable(8) %agg.tmp, ptr noundef %add.ptr3)
  %errorCode = getelementptr inbounds %"class.icu_75::ContractionsAndExpansions", ptr %this1, i32 0, i32 12
  invoke void @_ZN6icu_7510UCharsTrie8IteratorC1ENS_14ConstChar16PtrEiR10UErrorCode(ptr noundef nonnull align 8 dereferenceable(120) %suffixes, ptr noundef %agg.tmp, i32 noundef 0, ptr noundef nonnull align 4 dereferenceable(4) %errorCode)
          to label %invoke.cont unwind label %lpad

invoke.cont:                                      ; preds = %if.end
  call void @_ZN6icu_7514ConstChar16PtrD2Ev(ptr noundef nonnull align 8 dereferenceable(8) %agg.tmp) #6
  br label %while.cond

while.cond:                                       ; preds = %invoke.cont19, %invoke.cont
  %errorCode4 = getelementptr inbounds %"class.icu_75::ContractionsAndExpansions", ptr %this1, i32 0, i32 12
  %call7 = invoke noundef signext i8 @_ZN6icu_7510UCharsTrie8Iterator4nextER10UErrorCode(ptr noundef nonnull align 8 dereferenceable(120) %suffixes, ptr noundef nonnull align 4 dereferenceable(4) %errorCode4)
          to label %invoke.cont6 unwind label %lpad5

invoke.cont6:                                     ; preds = %while.cond
  %tobool = icmp ne i8 %call7, 0
  br i1 %tobool, label %while.body, label %while.end

while.body:                                       ; preds = %invoke.cont6
  %call9 = invoke noundef nonnull align 8 dereferenceable(64) ptr @_ZNK6icu_7510UCharsTrie8Iterator9getStringEv(ptr noundef nonnull align 8 dereferenceable(120) %suffixes)
          to label %invoke.cont8 unwind label %lpad5

invoke.cont8:                                     ; preds = %while.body
  %suffix = getelementptr inbounds %"class.icu_75::ContractionsAndExpansions", ptr %this1, i32 0, i32 10
  store ptr %call9, ptr %suffix, align 8
  %9 = load i32, ptr %start.addr, align 4
  %10 = load i32, ptr %end.addr, align 4
  %contractions = getelementptr inbounds %"class.icu_75::ContractionsAndExpansions", ptr %this1, i32 0, i32 1
  %11 = load ptr, ptr %contractions, align 8
  invoke void @_ZN6icu_7525ContractionsAndExpansions10addStringsEiiPNS_10UnicodeSetE(ptr noundef nonnull align 8 dereferenceable(764) %this1, i32 noundef %9, i32 noundef %10, ptr noundef %11)
          to label %invoke.cont10 unwind label %lpad5

invoke.cont10:                                    ; preds = %invoke.cont8
  %unreversedPrefix = getelementptr inbounds %"class.icu_75::ContractionsAndExpansions", ptr %this1, i32 0, i32 9
  %call12 = invoke noundef signext i8 @_ZNK6icu_7513UnicodeString7isEmptyEv(ptr noundef nonnull align 8 dereferenceable(64) %unreversedPrefix)
          to label %invoke.cont11 unwind label %lpad5

invoke.cont11:                                    ; preds = %invoke.cont10
  %tobool13 = icmp ne i8 %call12, 0
  br i1 %tobool13, label %if.end16, label %if.then14

if.then14:                                        ; preds = %invoke.cont11
  %12 = load i32, ptr %start.addr, align 4
  %13 = load i32, ptr %end.addr, align 4
  %expansions = getelementptr inbounds %"class.icu_75::ContractionsAndExpansions", ptr %this1, i32 0, i32 2
  %14 = load ptr, ptr %expansions, align 8
  invoke void @_ZN6icu_7525ContractionsAndExpansions10addStringsEiiPNS_10UnicodeSetE(ptr noundef nonnull align 8 dereferenceable(764) %this1, i32 noundef %12, i32 noundef %13, ptr noundef %14)
          to label %invoke.cont15 unwind label %lpad5

invoke.cont15:                                    ; preds = %if.then14
  br label %if.end16

lpad:                                             ; preds = %if.end
  %15 = landingpad { ptr, i32 }
          cleanup
  %16 = extractvalue { ptr, i32 } %15, 0
  store ptr %16, ptr %exn.slot, align 8
  %17 = extractvalue { ptr, i32 } %15, 1
  store i32 %17, ptr %ehselector.slot, align 4
  call void @_ZN6icu_7514ConstChar16PtrD2Ev(ptr noundef nonnull align 8 dereferenceable(8) %agg.tmp) #6
  br label %eh.resume

lpad5:                                            ; preds = %invoke.cont17, %if.end16, %if.then14, %invoke.cont10, %invoke.cont8, %while.body, %while.cond
  %18 = landingpad { ptr, i32 }
          cleanup
  %19 = extractvalue { ptr, i32 } %18, 0
  store ptr %19, ptr %exn.slot, align 8
  %20 = extractvalue { ptr, i32 } %18, 1
  store i32 %20, ptr %ehselector.slot, align 4
  call void @_ZN6icu_7510UCharsTrie8IteratorD1Ev(ptr noundef nonnull align 8 dereferenceable(120) %suffixes) #6
  br label %eh.resume

if.end16:                                         ; preds = %invoke.cont15, %invoke.cont11
  %21 = load i32, ptr %start.addr, align 4
  %22 = load i32, ptr %end.addr, align 4
  %call18 = invoke noundef i32 @_ZNK6icu_7510UCharsTrie8Iterator8getValueEv(ptr noundef nonnull align 8 dereferenceable(120) %suffixes)
          to label %invoke.cont17 unwind label %lpad5

invoke.cont17:                                    ; preds = %if.end16
  invoke void @_ZN6icu_7525ContractionsAndExpansions10handleCE32Eiij(ptr noundef nonnull align 8 dereferenceable(764) %this1, i32 noundef %21, i32 noundef %22, i32 noundef %call18)
          to label %invoke.cont19 unwind label %lpad5

invoke.cont19:                                    ; preds = %invoke.cont17
  br label %while.cond, !llvm.loop !18

while.end:                                        ; preds = %invoke.cont6
  %suffix20 = getelementptr inbounds %"class.icu_75::ContractionsAndExpansions", ptr %this1, i32 0, i32 10
  store ptr null, ptr %suffix20, align 8
  call void @_ZN6icu_7510UCharsTrie8IteratorD1Ev(ptr noundef nonnull align 8 dereferenceable(120) %suffixes) #6
  ret void

eh.resume:                                        ; preds = %lpad5, %lpad
  %exn = load ptr, ptr %exn.slot, align 8
  %sel = load i32, ptr %ehselector.slot, align 4
  %lpad.val = insertvalue { ptr, i32 } poison, ptr %exn, 0
  %lpad.val21 = insertvalue { ptr, i32 } %lpad.val, i32 %sel, 1
  resume { ptr, i32 } %lpad.val21
}