; Function Attrs: mustprogress uwtable
define void @_ZN6icu_7525ContractionsAndExpansions18handleContractionsEiij(ptr noundef nonnull align 8 dereferenceable(764) %this, i32 noundef %start, i32 noundef %end, i32 noundef %ce32) local_unnamed_addr #0 align 2 personality ptr @__gxx_personality_v0 {
entry:
  %suffixes = alloca %"class.icu_75::UCharsTrie::Iterator", align 8
  %agg.tmp = alloca %"class.icu_75::ConstChar16Ptr", align 8
  %0 = load ptr, ptr %this, align 8
  %contexts = getelementptr inbounds i8, ptr %0, i64 24
  %1 = load ptr, ptr %contexts, align 8
  %shr.i = lshr i32 %ce32, 13
  %idx.ext = zext nneg i32 %shr.i to i64
  %add.ptr = getelementptr inbounds i16, ptr %1, i64 %idx.ext
  %and = and i32 %ce32, 256
  %cmp.not = icmp eq i32 %and, 0
  br i1 %cmp.not, label %if.else, label %if.end

if.else:                                          ; preds = %entry
  %2 = load i16, ptr %add.ptr, align 2
  %conv.i = zext i16 %2 to i32
  %shl.i = shl nuw i32 %conv.i, 16
  %arrayidx1.i = getelementptr inbounds i8, ptr %add.ptr, i64 2
  %3 = load i16, ptr %arrayidx1.i, align 2
  %conv2.i = zext i16 %3 to i32
  %or.i = or disjoint i32 %shl.i, %conv2.i
  tail call void @_ZN6icu_7525ContractionsAndExpansions10handleCE32Eiij(ptr noundef nonnull align 8 dereferenceable(764) %this, i32 noundef %start, i32 noundef %end, i32 noundef %or.i)
  br label %if.end

if.end:                                           ; preds = %entry, %if.else
  %add.ptr3 = getelementptr inbounds i8, ptr %add.ptr, i64 4
  store ptr %add.ptr3, ptr %agg.tmp, align 8
  %errorCode = getelementptr inbounds i8, ptr %this, i64 760
  invoke void @_ZN6icu_7510UCharsTrie8IteratorC1ENS_14ConstChar16PtrEiR10UErrorCode(ptr noundef nonnull align 8 dereferenceable(120) %suffixes, ptr noundef nonnull %agg.tmp, i32 noundef 0, ptr noundef nonnull align 4 dereferenceable(4) %errorCode)
          to label %invoke.cont unwind label %lpad

invoke.cont:                                      ; preds = %if.end
  %4 = load ptr, ptr %agg.tmp, align 8
  call void asm sideeffect "", "rm,~{memory},~{dirflag},~{fpsr},~{flags}"(ptr %4) #9, !srcloc !7
  %str_.i = getelementptr inbounds i8, ptr %suffixes, i64 40
  %suffix = getelementptr inbounds i8, ptr %this, i64 504
  %contractions = getelementptr inbounds i8, ptr %this, i64 8
  %fUnion.i = getelementptr inbounds i8, ptr %this, i64 448
  %expansions = getelementptr inbounds i8, ptr %this, i64 16
  %value_.i = getelementptr inbounds i8, ptr %suffixes, i64 108
  br label %while.cond

while.cond:                                       ; preds = %if.end16, %invoke.cont
  %call7 = invoke noundef signext i8 @_ZN6icu_7510UCharsTrie8Iterator4nextER10UErrorCode(ptr noundef nonnull align 8 dereferenceable(120) %suffixes, ptr noundef nonnull align 4 dereferenceable(4) %errorCode)
          to label %invoke.cont6 unwind label %lpad5

invoke.cont6:                                     ; preds = %while.cond
  %tobool.not = icmp eq i8 %call7, 0
  br i1 %tobool.not, label %while.end, label %while.body

while.body:                                       ; preds = %invoke.cont6
  store ptr %str_.i, ptr %suffix, align 8
  %5 = load ptr, ptr %contractions, align 8
  invoke void @_ZN6icu_7525ContractionsAndExpansions10addStringsEiiPNS_10UnicodeSetE(ptr noundef nonnull align 8 dereferenceable(764) %this, i32 noundef %start, i32 noundef %end, ptr noundef %5)
          to label %invoke.cont10 unwind label %lpad5

invoke.cont10:                                    ; preds = %while.body
  %6 = load i16, ptr %fUnion.i, align 8
  %cmp.i = icmp ugt i16 %6, 31
  br i1 %cmp.i, label %if.then14, label %if.end16

if.then14:                                        ; preds = %invoke.cont10
  %7 = load ptr, ptr %expansions, align 8
  invoke void @_ZN6icu_7525ContractionsAndExpansions10addStringsEiiPNS_10UnicodeSetE(ptr noundef nonnull align 8 dereferenceable(764) %this, i32 noundef %start, i32 noundef %end, ptr noundef %7)
          to label %if.end16 unwind label %lpad5

lpad:                                             ; preds = %if.end
  %8 = landingpad { ptr, i32 }
          cleanup
  %9 = load ptr, ptr %agg.tmp, align 8
  call void asm sideeffect "", "rm,~{memory},~{dirflag},~{fpsr},~{flags}"(ptr %9) #9, !srcloc !7
  br label %eh.resume

lpad5:                                            ; preds = %if.end16, %if.then14, %while.body, %while.cond
  %10 = landingpad { ptr, i32 }
          cleanup
  call void @_ZN6icu_7510UCharsTrie8IteratorD1Ev(ptr noundef nonnull align 8 dereferenceable(120) %suffixes) #9
  br label %eh.resume

if.end16:                                         ; preds = %if.then14, %invoke.cont10
  %11 = load i32, ptr %value_.i, align 4
  invoke void @_ZN6icu_7525ContractionsAndExpansions10handleCE32Eiij(ptr noundef nonnull align 8 dereferenceable(764) %this, i32 noundef %start, i32 noundef %end, i32 noundef %11)
          to label %while.cond unwind label %lpad5, !llvm.loop !18

while.end:                                        ; preds = %invoke.cont6
  store ptr null, ptr %suffix, align 8
  call void @_ZN6icu_7510UCharsTrie8IteratorD1Ev(ptr noundef nonnull align 8 dereferenceable(120) %suffixes) #9
  ret void

eh.resume:                                        ; preds = %lpad5, %lpad
  %.pn = phi { ptr, i32 } [ %10, %lpad5 ], [ %8, %lpad ]
  resume { ptr, i32 } %.pn
}